(lp1
(dp2
a(dp3
a(dp4
a(dp5
a(dp6
a(dp7
a(dp8
a(dp9
a(dp10
a(dp11
a(dp12
a(dp13
a(dp14
a(dp15
a(dp16
a(dp17
a(dp18
a(dp19
a(dp20
a(dp21
a(dp22
a(dp23
a(dp24
a(dp25
a(dp26
a(dp27
a(dp28
a(dp29
a(dp30
a(dp31
a(dp32
a(dp33
a(dp34
a(dp35
a(dp36
a(dp37
a(dp38
a(dp39
a(dp40
a(dp41
a(dp42
a(dp43
a(dp44
a(dp45
a(dp46
a(dp47
a(dp48
a(dp49
a(dp50
a(dp51
a(dp52
a(dp53
a(dp54
a(dp55
a(dp56
a(dp57
a(dp58
a(dp59
a(dp60
a(dp61
a(dp62
a(dp63
a(dp64
a(dp65
a(dp66
a(dp67
a(dp68
a(dp69
a(dp70
a(dp71
a(dp72
a(dp73
a(dp74
a(dp75
a(dp76
a(dp77
a(dp78
a(dp79
a(dp80
I4
S'ls'
p81
sa(dp82
a(dp83
I10
Vmy_string 
p84
sI7
S', '
p85
sa(dp86
I9
VL
sI15
F53
sa(dp87
I2
S'~/foo.ini'
p88
sa(dp89
I3
Vc
sa(dp90
I5
Vs
sa(dp91
I5
Vtext
p92
sa(dp93
I2
Vlst
p94
sa(dp95
I2
Vapple
p96
sI6
Vutf-8
p97
sa(dp98
I8
VX
sa(dp99
I5
F7
sa(dp100
I3
Vvariable
p101
sa(dp102
I4
Vdriver
p103
sa(dp104
I10
S'/home/username/'
p105
sI6
S'HOME'
p106
sa(dp107
I4
Vd
sa(dp108
I4
V['x', 'x', 'x']
p109
sa(dp110
I8
Vtest.png
p111
sa(dp112
I6
V['a', 'c', 'b', 'obj']
p113
sa(dp114
I10
S'my_bucket'
p115
sI5
S'/upload'
p116
sa(dp117
I3
S'a'
sa(dp118
I13
Va
sI6
F-1
sa(dp119
I6
Vs
sa(dp120
I3
Vdatetimevariable
p121
sI6
S'%Y-%m-%d'
p122
sa(dp123
I5
S'Enter name here: '
p124
sI15
S'Hello, {0}, how do you do?'
p125
sa(dp126
I4
S'Home.views.index'
p127
sa(dp128
I1
S'test2.py'
p129
sI6
S'path/to/python'
p130
sI9
S'neededArgumetGoHere'
p131
sa(dp132
I1
S' '
sI10
S','
sI12
S'.'
sI14
F12345678.460000001
sI7
S'.'
sa(dp133
I4
Va
sI7
S'ascii'
p134
sa(dp135
a(dp136
I8
Vutf8
p137
sI6
Vurl
p138
sa(dp139
I2
F13.9499999
sa(dp140
I5
S'frameName'
p141
sa(dp142
I7
Vdf
p143
sa(dp144
I3
Vd
sI6
Viterable
p145
sa(dp146
I16
S'n'
sI11
S'l'
sI13
S'm'
sa(dp147
I5
Vsequences
p148
sa(dp149
I10
S'Name'
p150
sI12
S'Destination'
p151
sa(dp152
I8
VCongress
p153
sa(dp154
a(dp155
I2
Vs
sa(dp156
I3
S'((\\d)(?:[()]*\\2*[()]*)*)'
p157
sI7
Vs
sa(dp158
a(dp159
I2
Vdt
p160
sa(dp161
I1
S'Please enter something: '
p162
sI9
Vvar
p163
sa(dp164
I6
Vmylist
p165
sa(dp166
I5
S'6,7)'
p167
sa(dp168
I2
Vh
sa(dp169
I5
Vline
p170
sa(dp171
I12
Vchosen_value
p172
sI7
Vd
sa(dp173
I9
Vdatetime
p174
sI4
Vcar.date_of_manufacture
p175
sa(dp176
I2
S'libs'
p177
sa(dp178
I10
Vmy_list
p179
sa(dp180
I8
Va
sI4
V[1, 1]
p181
sa(dp182
I11
Vx
sa(dp183
I6
Vstring_slice
p184
sa(dp185
I12
VB
sI6
VA
sa(dp186
I9
Vs
sa(dp187
I4
Vtitle
p188
sI7
g134
sa(dp189
I3
Vlst
p190
sa(dp191
I8
VmyDict
p192
sI3
Vsql
p193
sa(dp194
I5
Vlst
p195
sa(dp196
I14
S'text'
p197
sI6
S'*'
sa(dp198
I9
Vdirectory
p199
sa(dp200
I16
Vb
sI13
Va
sa(dp201
I2
Vd
sI7
Vdf
p202
sa(dp203
I5
F0
sI7
F9
sa(dp204
I6
Vitem
p205
sa(dp206
I2
Vd
sa(dp207
I11
Vf233op 
p208
sa(dp209
I9
F1000
sI5
S'graph.png'
p210
sa(dp211
I9
Vlines
p212
sI2
S'filename'
p213
sa(dp214
I3
VL
sa(dp215
I4
F3
sa(dp216
I8
Vs
sa(dp217
I9
V['somekey', 'someotherkey', 'somekeyggg']
p218
sI3
Vd
sa(dp219
I3
S'          Hello        '
p220
sa(dp221
I8
VexistGDBPath 
p222
sa(dp223
a(dp224
I10
Vpos
p225
sI3
Vlabels
p226
sI7
VG 
p227
sa(dp228
I8
S'AB'
p229
sI16
S' '
sI11
S'A'
sI13
S'B'
sa(dp230
I1
S'[1, 2, 3]'
p231
sa(dp232
I8
Vs
sI5
S'(?::|;|=)(?:-)?(?:\\)|\\(|D|P)'
p233
sa(dp234
I7
Vinput_list
p235
sa(dp236
I9
S'utf-8-sig'
p237
sI2
S'sample.json'
p238
sa(dp239
I3
Vs
sa(dp240
a(dp241
I3
S'0xa'
p242
sa(dp243
I5
VmyList
p244
sa(dp245
I3
S'DEBUSSY'
p246
sI6
F1
sa(dp247
a(dp248
I4
Vs
sa(dp249
I4
S'16sep2012'
p250
sa(dp251
I5
S'x'
sa(dp252
I3
Vhtml
p253
sa(dp254
a(dp255
I8
S'words'
p256
sa(dp257
I6
S'follow?page'
p258
sa(dp259
I4
S'some_command < input_file | another_command > output_file'
p260
sa(dp261
I5
Vfunc
p262
sa(dp263
I1
F3
sI3
F3
sa(dp264
I3
Vdf1
p265
sa(dp266
a(dp267
I8
F2002
sa(dp268
I4
V[1, 1]
p269
sI7
Va
sa(dp270
I1
F20
sI6
S'.'
sI9
S'unique12345678901234567890.mkv'
p271
sa(dp272
I4
Vfoo
p273
sa(dp274
I8
Va
sI4
Vb
sa(dp275
I2
Vurl
p276
sI6
V{'referer': my_referer}
p277
sa(dp278
I8
S'%Y/%m/%d %I:%M%p'
p279
sI2
S'2015/01/01 12:12am'
p280
sa(dp281
I13
VmyLIst
p282
sI6
Vgold
p283
sa(dp284
I2
S'cool beans...'
p285
sI5
S'foo'
p286
sa(dp287
I6
Va
sa(dp288
I9
S'%Y-%m-%d'
p289
sI13
S'%m/%d/%y'
p290
sI6
S'2013-1-25'
p291
sa(dp292
I2
Vstrings
p293
sI13
V%
sa(dp294
a(dp295
I3
VInstructor
p296
sa(dp297
I7
V[1, 2, 2, 3, 2, 2, 4]
p298
sa(dp299
I3
S'a'
sI5
Vd
sa(dp300
I8
S's'
sI2
S'a'
sI11
S'3'
sI5
S'e'
sI14
Vcontents
p301
sa(dp302
I6
S'specific message'
p303
sa(dp304
I2
F13.949999999999999
sa(dp305
a(dp306
I4
Va
sI13
Vb
sa(dp307
I10
Vdesired_value
p308
sI6
Vd
sa(dp309
I8
Vdf
p310
sI11
S'responsive'
p311
sI5
S'prod_type'
p312
sa(dp313
I18
Vnp.argsort
p314
sI6
Vdf
p315
sa(dp316
I2
S'x'
sI5
S'x'
sa(dp317
I5
Vs
sa(dp318
I10
F1
sI3
S'script2.py'
p319
sa(dp320
I5
Vsome.package
p321
sa(dp322
I1
S'\\u200b'
p323
sI3
S'*'
sa(dp324
I4
Vfoo
p325
sa(dp326
I2
Vd
sI10
F0
sa(dp327
I5
Vmy_function
p328
sa(dp329
I8
g286
sI10
S'bar'
p330
sI12
S'baz'
p331
sI6
S'A very specific bad thing happened'
p332
sa(dp333
a(dp334
I5
g106
sa(dp335
I5
V[1, 2, 3, 4, 5]
p336
sa(dp337
I2
Vstudent_tuples
p338
sa(dp339
I5
Va
sa(dp340
I3
Va
sI5
F2
sa(dp341
I8
S'or'
p342
sI2
S'sad_pandas_and_happy_cats_for_people'
p343
sI10
S'for'
p344
sI6
S'and'
p345
sa(dp346
I13
Vnext
p347
sI7
Vnext
p348
sa(dp349
I2
S'filename.py'
p350
sa(dp351
a(dp352
I3
Valist
p353
sa(dp354
I16
Vdf
p355
sI10
S''
sI13
S'name'
p356
sa(dp357
I8
V[[2, 3, 4], [2, 3, 4], [2, 3, 4]]
p358
sa(dp359
I4
S'echo Hello World'
p360
sa(dp361
I3
Vstring
p362
sa(dp363
I24
Vvalue
p364
sI17
Vgroup
p365
sI10
Vdf
p366
sa(dp367
I8
S'df'
p368
sI4
S'a'
sa(dp369
I4
Vdf
p370
sa(dp371
I9
S'</bad>'
p372
sI13
Vs
sI7
S'</div>'
p373
sa(dp374
I3
Va , b; cdf
p375
sa(dp376
a(dp377
I5
Vdf
p378
sa(dp379
I12
Vw
sI5
Vfig
p380
sI14
Vh
sa(dp381
I16
Varr
p382
sI3
Vslice
p383
sa(dp384
I12
Vdisabled
p385
sI6
VText
p386
sa(dp387
a(dp388
I5
Vfile
p389
sa(dp390
I5
Vlol
p391
sa(dp392
I11
Vlst
p393
sI7
Vnone
p394
sa(dp395
I8
Vdf
p396
sa(dp397
I11
S'url'
p398
sa(dp399
I3
Vhttp://www.google.com
p400
sI7
Vdriver
p401
sa(dp402
I3
V/home/user/test/wsservice/data.pkl
p403
sa(dp404
I8
S'C'
sI2
S'A'
sI11
Vdf
p405
sI5
S'B'
sa(dp406
I17
S'n/a'
p407
sI3
S'my.csv'
p408
sI14
S'my_column'
p409
sI7
Vdf
p410
sa(dp411
I3
Vkey1
p412
sI7
Vjson
p413
sa(dp414
I11
S'Value'
p415
sI14
Vdf
p416
sa(dp417
I5
Vmy_list
p418
sa(dp419
I3
Vmy_cmd
p420
sa(dp421
I3
VL
sa(dp422
I23
S'en'
p423
sI4
Vlst
p424
sI15
S'language'
p425
sa(dp426
I12
g368
sI6
S'A'
sa(dp427
I18
Vlistb
p428
sI15
Vlista
p429
sa(dp430
I13
VlistD
p431
sa(dp432
I8
Vdf
p433
sI5
S'TRX_DATE'
p434
sa(dp435
I2
S'21/11/06 16:30'
p436
sI6
S'%d/%m/%y %H:%M'
p437
sa(dp438
I10
Vmask
p439
sa(dp440
I4
Vmystring
p441
sa(dp442
I2
Vold_list
p443
sI4
Vnew_list
p444
sa(dp445
I10
Vmonthly_mean
p446
sI4
S'index'
p447
sI7
S'A'
sa(dp448
I7
V\u005cu25b2
p449
sa(dp450
I6
S'd'
sa(dp451
a(dp452
I7
S'some error message'
p453
sa(dp454
a(dp455
I6
S'your-header-name'
p456
sa(dp457
I5
Vline
p458
sa(dp459
a(dp460
I8
Vid
p461
sI3
Vdf
p462
sa(dp463
I6
Vs
sa(dp464
I3
S'blabla'
p465
sI7
S'example.txt'
p466
sa(dp467
I5
Vf
sa(dp468
I2
Vs
sI4
Vutf-8
p469
sa(dp470
I3
Va
sI6
S'property'
p471
sa(dp472
I6
Vdf
p473
sa(dp474
I2
Vs
sa(dp475
I3
Vsample.xml
p476
sa(dp477
I5
Vmydict
p478
sa(dp479
I2
VmyList
p480
sI4
F4
sI5
F0
sa(dp481
I8
Vgold
p482
sI14
Vexample_list
p483
sa(dp484
I3
VAbc
p485
sa(dp486
I3
Varray
p487
sa(dp488
I12
F2014
sa(dp489
a(dp490
I4
Vitemlist
p491
sI7
Voutfile
p492
sa(dp493
I3
S'2009/05/13 19:19:30 -0400'
p494
sI6
S'%Y/%m/%d %H:%M:%S %z'
p495
sa(dp496
I8
F1
sI12
F3
sI4
F5
sa(dp497
I1
F5
sI7
Vdt
p498
sa(dp499
I11
Vbad_chars
p500
sI4
Vexample_line
p501
sa(dp502
I9
V(x, y, z)
p503
sI6
V(([1, 1, 1, 1], [1, 1, 2, 3]))
p504
sa(dp505
I9
Va
sI20
Va
sI6
Vm
sa(dp506
I4
V[1,2,3,4]
p507
sa(dp508
I2
Vmylist
p509
sI5
F2
sa(dp510
I4
S'{1} {ham} {0} {foo} {1}'
p511
sI7
V(10, 20, foo='bar', ham='spam')
p512
sa(dp513
I2
Vbar
p514
sI10
Vattrb2
p515
sI7
Vattrb1
p516
sa(dp517
I10
S'data'
p518
sI4
S'a'
sI6
S'c'
sa.